Certificate:
    Data:
        Version: 3 (0x2)
        Serial Number: 107 (0x6b)
        Signature Algorithm: sha256WithRSAEncryption
        Issuer: C=RU, ST=Some-State, O=d0.dver29spb.ru, CN=d0.dver29spb.ru/emailAddress=alborodin85@mail.ru
        Validity
            Not Before: Dec  5 06:04:51 2019 GMT
            Not After : Dec  2 06:04:51 2029 GMT
        Subject: C=RU, ST=Some-State, O=d0.dver29spb.ru, CN=s-tsk.ru/emailAddress=alborodin85@mail.ru
        Subject Public Key Info:
            Public Key Algorithm: rsaEncryption
                RSA Public-Key: (2048 bit)
                Modulus:
                    00:ea:e2:f7:ef:eb:0e:26:49:67:38:08:b3:93:f8:
                    eb:ed:ca:34:b6:84:0c:87:4d:9c:69:69:e5:f3:81:
                    78:53:d2:68:f4:70:1e:6b:e2:e8:60:be:3a:11:04:
                    f0:e9:c7:2a:7a:a2:ad:43:7b:05:68:e4:a2:60:7d:
                    a5:fa:93:8e:e6:63:71:c1:14:c4:db:f5:20:19:8f:
                    8a:cc:6a:cd:30:11:64:de:fe:b9:29:23:73:7e:fe:
                    f4:9a:12:b6:a8:c3:85:9f:f9:37:c8:a8:b5:c6:70:
                    2b:7a:a3:e1:4e:1e:13:96:4c:ef:03:72:e7:0f:e7:
                    93:4e:52:f3:a5:76:40:2b:67:f6:7b:bf:07:8f:73:
                    fc:ef:0d:ef:98:8f:e3:22:5f:ea:61:43:57:e7:2f:
                    ac:bd:83:25:18:86:19:36:21:5a:70:a1:63:c0:a9:
                    3d:16:a1:2c:d5:32:4a:f5:d2:87:c2:e0:9d:b8:a1:
                    ad:e1:91:d6:03:b2:0e:54:1e:4e:8a:b3:7a:08:5f:
                    0d:63:51:53:9f:b5:b9:e7:02:30:18:4d:9b:c8:c1:
                    c3:46:c4:70:eb:eb:4e:c3:81:cf:39:82:c2:16:d5:
                    a9:42:e1:22:fa:e0:90:7d:d2:7b:9f:fd:92:5b:82:
                    95:8b:e6:40:70:26:07:f7:87:dd:3f:71:d4:9b:d7:
                    7f:c7
                Exponent: 65537 (0x10001)
        X509v3 extensions:
            X509v3 Basic Constraints: 
                CA:FALSE
            X509v3 Key Usage: 
                Digital Signature, Non Repudiation, Key Encipherment
            X509v3 Subject Alternative Name: 
                DNS:s-tsk.ru, DNS:*.s-tsk.ru
    Signature Algorithm: sha256WithRSAEncryption
         68:f5:ee:a8:53:95:bb:13:2d:ae:9c:d6:d5:42:68:05:fc:bf:
         17:77:29:9f:f9:2c:dc:4c:14:56:75:dd:f7:60:b5:b3:3a:12:
         30:26:d6:46:54:bf:a3:bf:5b:c9:b3:74:9d:23:df:88:1b:6b:
         01:b9:f2:10:1b:ae:dc:a7:01:05:30:12:c0:89:fd:f8:e6:e7:
         71:0c:ef:99:c6:10:c1:af:a3:96:6e:c6:dc:5c:47:e5:f7:f2:
         4d:c7:1f:a8:9a:6d:3f:48:4a:51:35:36:11:62:0d:cb:b4:b9:
         e5:a3:09:ea:87:b0:6a:93:e4:04:f7:1b:3d:c1:06:94:e3:14:
         ac:64:ca:78:28:e3:7b:ff:19:5f:21:9d:72:88:cf:d2:e2:09:
         c9:73:d2:e3:66:ff:43:2a:cc:f1:d6:2e:26:6c:2b:91:5e:13:
         33:c5:fc:d7:98:bf:5a:6d:0a:f2:e6:9a:f4:74:34:4d:64:9d:
         e3:b0:a9:30:b1:82:83:66:06:7a:12:2f:02:a6:71:c6:7d:55:
         ac:80:cd:7a:52:bd:6d:3c:9a:f0:c5:03:f9:90:96:d3:83:28:
         fc:bf:6f:5c:55:24:57:50:33:76:88:7d:8d:3d:d0:b8:74:93:
         41:64:ad:83:97:cd:2c:42:16:77:e4:cd:21:19:fd:8d:2b:c6:
         30:a2:b6:48
-----BEGIN CERTIFICATE-----
MIIDozCCAougAwIBAgIBazANBgkqhkiG9w0BAQsFADB6MQswCQYDVQQGEwJSVTET
MBEGA1UECAwKU29tZS1TdGF0ZTEYMBYGA1UECgwPZDAuZHZlcjI5c3BiLnJ1MRgw
FgYDVQQDDA9kMC5kdmVyMjlzcGIucnUxIjAgBgkqhkiG9w0BCQEWE2FsYm9yb2Rp
bjg1QG1haWwucnUwHhcNMTkxMjA1MDYwNDUxWhcNMjkxMjAyMDYwNDUxWjBzMQsw
CQYDVQQGEwJSVTETMBEGA1UECAwKU29tZS1TdGF0ZTEYMBYGA1UECgwPZDAuZHZl
cjI5c3BiLnJ1MREwDwYDVQQDDAhzLXRzay5ydTEiMCAGCSqGSIb3DQEJARYTYWxi
b3JvZGluODVAbWFpbC5ydTCCASIwDQYJKoZIhvcNAQEBBQADggEPADCCAQoCggEB
AOri9+/rDiZJZzgIs5P46+3KNLaEDIdNnGlp5fOBeFPSaPRwHmvi6GC+OhEE8OnH
KnqirUN7BWjkomB9pfqTjuZjccEUxNv1IBmPisxqzTARZN7+uSkjc37+9JoStqjD
hZ/5N8iotcZwK3qj4U4eE5ZM7wNy5w/nk05S86V2QCtn9nu/B49z/O8N75iP4yJf
6mFDV+cvrL2DJRiGGTYhWnChY8CpPRahLNUySvXSh8LgnbihreGR1gOyDlQeToqz
eghfDWNRU5+1uecCMBhNm8jBw0bEcOvrTsOBzzmCwhbVqULhIvrgkH3Se5/9kluC
lYvmQHAmB/eH3T9x1JvXf8cCAwEAAaM7MDkwCQYDVR0TBAIwADALBgNVHQ8EBAMC
BeAwHwYDVR0RBBgwFoIIcy10c2sucnWCCioucy10c2sucnUwDQYJKoZIhvcNAQEL
BQADggEBAGj17qhTlbsTLa6c1tVCaAX8vxd3KZ/5LNxMFFZ13fdgtbM6EjAm1kZU
v6O/W8mzdJ0j34gbawG58hAbrtynAQUwEsCJ/fjm53EM75nGEMGvo5ZuxtxcR+X3
8k3HH6iabT9ISlE1NhFiDcu0ueWjCeqHsGqT5AT3Gz3BBpTjFKxkyngo43v/GV8h
nXKIz9LiCclz0uNm/0MqzPHWLiZsK5FeEzPF/NeYv1ptCvLmmvR0NE1kneOwqTCx
goNmBnoSLwKmccZ9VayAzXpSvW08mvDFA/mQltODKPy/b1xVJFdQM3aIfY090Lh0
k0FkrYOXzSxCFnfkzSEZ/Y0rxjCitkg=
-----END CERTIFICATE-----
